target datalayout = "e-m:e-p270:32:32-p271:32:32-p272:64:64-i64:64-i128:128-f80:128-n8:16:32:64-S128"
target triple = "x86_64-pc-linux-gnu"

%struct.ossl_param_st = type { ptr, i32, ptr, i64, i64 }
%struct.dsa_gen_ctx = type { ptr, ptr, i32, i64, i64, ptr, i64, i32, i32, i32, i32, ptr, ptr, ptr, ptr }
%struct.dh_name2id_st = type { ptr, i32 }

@.str = private unnamed_addr constant [57 x i8] c"../openssl/providers/implementations/keymgmt/dsa_kmgmt.c\00", align 1
@.str.1 = private unnamed_addr constant [5 x i8] c"type\00", align 1
@__func__.dsa_gen_set_params = private unnamed_addr constant [19 x i8] c"dsa_gen_set_params\00", align 1
@.str.2 = private unnamed_addr constant [7 x i8] c"gindex\00", align 1
@.str.3 = private unnamed_addr constant [9 x i8] c"pcounter\00", align 1
@.str.4 = private unnamed_addr constant [7 x i8] c"hindex\00", align 1
@.str.5 = private unnamed_addr constant [5 x i8] c"seed\00", align 1
@.str.6 = private unnamed_addr constant [6 x i8] c"pbits\00", align 1
@.str.7 = private unnamed_addr constant [6 x i8] c"qbits\00", align 1
@.str.8 = private unnamed_addr constant [7 x i8] c"digest\00", align 1
@.str.9 = private unnamed_addr constant [11 x i8] c"properties\00", align 1
@dsatype2id = internal constant [3 x { ptr, i32, [4 x i8] }] [{ ptr, i32, [4 x i8] } { ptr @.str.10, i32 2, [4 x i8] zeroinitializer }, { ptr, i32, [4 x i8] } { ptr @.str.11, i32 0, [4 x i8] zeroinitializer }, { ptr, i32, [4 x i8] } { ptr @.str.12, i32 1, [4 x i8] zeroinitializer }], align 16

; Function Attrs: nounwind uwtable
define internal i32 @dsa_gen_type_name2id(ptr noundef %0) #0 {
  %2 = alloca i32, align 4
  %3 = alloca ptr, align 8
  %4 = alloca i64, align 8
  %5 = alloca i32, align 4
  store ptr %0, ptr %3, align 8, !tbaa !53
  call void @llvm.lifetime.start.p0(i64 8, ptr %4) #7
  store i64 0, ptr %4, align 8, !tbaa !48
  br label %6

6:                                                ; preds = %23, %1
  %7 = load i64, ptr %4, align 8, !tbaa !48
  %8 = icmp ult i64 %7, 3
  br i1 %8, label %9, label %26

9:                                                ; preds = %6
  %10 = load i64, ptr %4, align 8, !tbaa !48
  %11 = getelementptr inbounds nuw [3 x %struct.dh_name2id_st], ptr @dsatype2id, i64 0, i64 %10
  %12 = getelementptr inbounds nuw %struct.dh_name2id_st, ptr %11, i32 0, i32 0
  %13 = load ptr, ptr %12, align 16, !tbaa !54
  %14 = load ptr, ptr %3, align 8, !tbaa !53
  %15 = call i32 @OPENSSL_strcasecmp(ptr noundef %13, ptr noundef %14)
  %16 = icmp eq i32 %15, 0
  br i1 %16, label %17, label %22

17:                                               ; preds = %9
  %18 = load i64, ptr %4, align 8, !tbaa !48
  %19 = getelementptr inbounds nuw [3 x %struct.dh_name2id_st], ptr @dsatype2id, i64 0, i64 %18
  %20 = getelementptr inbounds nuw %struct.dh_name2id_st, ptr %19, i32 0, i32 1
  %21 = load i32, ptr %20, align 8, !tbaa !56
  store i32 %21, ptr %2, align 4
  store i32 1, ptr %5, align 4
  br label %27

22:                                               ; preds = %9
  br label %23

23:                                               ; preds = %22
  %24 = load i64, ptr %4, align 8, !tbaa !48
  %25 = add i64 %24, 1
  store i64 %25, ptr %4, align 8, !tbaa !48
  br label %6, !llvm.loop !57

26:                                               ; preds = %6
  store i32 -1, ptr %2, align 4
  store i32 1, ptr %5, align 4
  br label %27

27:                                               ; preds = %26, %17
  call void @llvm.lifetime.end.p0(i64 8, ptr %4) #7
  %28 = load i32, ptr %2, align 4
  ret i32 %28
}

; Function Attrs: inlinehint nounwind uwtable
define internal i32 @ossl_param_is_empty(ptr noundef %0) #1 {
  %2 = alloca ptr, align 8
  store ptr %0, ptr %2, align 8, !tbaa !9
  %3 = load ptr, ptr %2, align 8, !tbaa !9
  %4 = icmp eq ptr %3, null
  br i1 %4, label %10, label %5

5:                                                ; preds = %1
  %6 = load ptr, ptr %2, align 8, !tbaa !9
  %7 = getelementptr inbounds nuw %struct.ossl_param_st, ptr %6, i32 0, i32 0
  %8 = load ptr, ptr %7, align 8, !tbaa !52
  %9 = icmp eq ptr %8, null
  br label %10

10:                                               ; preds = %5, %1
  %11 = phi i1 [ true, %1 ], [ %9, %5 ]
  %12 = zext i1 %11 to i32
  ret i32 %12
}

; Function Attrs: nounwind uwtable
define internal i32 @dsa_gen_set_params(ptr noundef %0, ptr noundef %1) #0 {
  %3 = alloca i32, align 4
  %4 = alloca ptr, align 8
  %5 = alloca ptr, align 8
  %6 = alloca ptr, align 8
  %7 = alloca ptr, align 8
  %8 = alloca i32, align 4
  %9 = alloca i32, align 4
  store ptr %0, ptr %4, align 8, !tbaa !3
  store ptr %1, ptr %5, align 8, !tbaa !9
  call void @llvm.lifetime.start.p0(i64 8, ptr %6) #7
  %10 = load ptr, ptr %4, align 8, !tbaa !3
  store ptr %10, ptr %6, align 8, !tbaa !13
  call void @llvm.lifetime.start.p0(i64 8, ptr %7) #7
  call void @llvm.lifetime.start.p0(i64 4, ptr %8) #7
  store i32 -1, ptr %8, align 4, !tbaa !7
  %11 = load ptr, ptr %6, align 8, !tbaa !13
  %12 = icmp eq ptr %11, null
  br i1 %12, label %13, label %14

13:                                               ; preds = %2
  store i32 0, ptr %3, align 4
  store i32 1, ptr %9, align 4
  br label %178

14:                                               ; preds = %2
  %15 = load ptr, ptr %5, align 8, !tbaa !9
  %16 = call i32 @ossl_param_is_empty(ptr noundef %15)
  %17 = icmp ne i32 %16, 0
  br i1 %17, label %18, label %19

18:                                               ; preds = %14
  store i32 1, ptr %3, align 4
  store i32 1, ptr %9, align 4
  br label %178

19:                                               ; preds = %14
  %20 = load ptr, ptr %5, align 8, !tbaa !9
  %21 = call ptr @OSSL_PARAM_locate_const(ptr noundef %20, ptr noundef @.str.1)
  store ptr %21, ptr %7, align 8, !tbaa !9
  %22 = load ptr, ptr %7, align 8, !tbaa !9
  %23 = icmp ne ptr %22, null
  br i1 %23, label %24, label %44

24:                                               ; preds = %19
  %25 = load ptr, ptr %7, align 8, !tbaa !9
  %26 = getelementptr inbounds nuw %struct.ossl_param_st, ptr %25, i32 0, i32 1
  %27 = load i32, ptr %26, align 8, !tbaa !30
  %28 = icmp ne i32 %27, 4
  br i1 %28, label %35, label %29

29:                                               ; preds = %24
  %30 = load ptr, ptr %7, align 8, !tbaa !9
  %31 = getelementptr inbounds nuw %struct.ossl_param_st, ptr %30, i32 0, i32 2
  %32 = load ptr, ptr %31, align 8, !tbaa !32
  %33 = call i32 @dsa_gen_type_name2id(ptr noundef %32)
  store i32 %33, ptr %8, align 4, !tbaa !7
  %34 = icmp eq i32 %33, -1
  br i1 %34, label %35, label %36

35:                                               ; preds = %29, %24
  call void @ERR_new()
  call void @ERR_set_debug(ptr noundef @.str, i32 noundef 484, ptr noundef @__func__.dsa_gen_set_params)
  call void (i32, i32, ptr, ...) @ERR_set_error(i32 noundef 57, i32 noundef 524550, ptr noundef null)
  store i32 0, ptr %3, align 4
  store i32 1, ptr %9, align 4
  br label %178

36:                                               ; preds = %29
  %37 = load i32, ptr %8, align 4, !tbaa !7
  %38 = icmp ne i32 %37, -1
  br i1 %38, label %39, label %43

39:                                               ; preds = %36
  %40 = load i32, ptr %8, align 4, !tbaa !7
  %41 = load ptr, ptr %6, align 8, !tbaa !13
  %42 = getelementptr inbounds nuw %struct.dsa_gen_ctx, ptr %41, i32 0, i32 8
  store i32 %40, ptr %42, align 4, !tbaa !23
  br label %43

43:                                               ; preds = %39, %36
  br label %44

44:                                               ; preds = %43, %19
  %45 = load ptr, ptr %5, align 8, !tbaa !9
  %46 = call ptr @OSSL_PARAM_locate_const(ptr noundef %45, ptr noundef @.str.2)
  store ptr %46, ptr %7, align 8, !tbaa !9
  %47 = load ptr, ptr %7, align 8, !tbaa !9
  %48 = icmp ne ptr %47, null
  br i1 %48, label %49, label %56

49:                                               ; preds = %44
  %50 = load ptr, ptr %7, align 8, !tbaa !9
  %51 = load ptr, ptr %6, align 8, !tbaa !13
  %52 = getelementptr inbounds nuw %struct.dsa_gen_ctx, ptr %51, i32 0, i32 7
  %53 = call i32 @OSSL_PARAM_get_int(ptr noundef %50, ptr noundef %52)
  %54 = icmp ne i32 %53, 0
  br i1 %54, label %56, label %55

55:                                               ; preds = %49
  store i32 0, ptr %3, align 4
  store i32 1, ptr %9, align 4
  br label %178

56:                                               ; preds = %49, %44
  %57 = load ptr, ptr %5, align 8, !tbaa !9
  %58 = call ptr @OSSL_PARAM_locate_const(ptr noundef %57, ptr noundef @.str.3)
  store ptr %58, ptr %7, align 8, !tbaa !9
  %59 = load ptr, ptr %7, align 8, !tbaa !9
  %60 = icmp ne ptr %59, null
  br i1 %60, label %61, label %68

61:                                               ; preds = %56
  %62 = load ptr, ptr %7, align 8, !tbaa !9
  %63 = load ptr, ptr %6, align 8, !tbaa !13
  %64 = getelementptr inbounds nuw %struct.dsa_gen_ctx, ptr %63, i32 0, i32 9
  %65 = call i32 @OSSL_PARAM_get_int(ptr noundef %62, ptr noundef %64)
  %66 = icmp ne i32 %65, 0
  br i1 %66, label %68, label %67

67:                                               ; preds = %61
  store i32 0, ptr %3, align 4
  store i32 1, ptr %9, align 4
  br label %178

68:                                               ; preds = %61, %56
  %69 = load ptr, ptr %5, align 8, !tbaa !9
  %70 = call ptr @OSSL_PARAM_locate_const(ptr noundef %69, ptr noundef @.str.4)
  store ptr %70, ptr %7, align 8, !tbaa !9
  %71 = load ptr, ptr %7, align 8, !tbaa !9
  %72 = icmp ne ptr %71, null
  br i1 %72, label %73, label %80

73:                                               ; preds = %68
  %74 = load ptr, ptr %7, align 8, !tbaa !9
  %75 = load ptr, ptr %6, align 8, !tbaa !13
  %76 = getelementptr inbounds nuw %struct.dsa_gen_ctx, ptr %75, i32 0, i32 10
  %77 = call i32 @OSSL_PARAM_get_int(ptr noundef %74, ptr noundef %76)
  %78 = icmp ne i32 %77, 0
  br i1 %78, label %80, label %79

79:                                               ; preds = %73
  store i32 0, ptr %3, align 4
  store i32 1, ptr %9, align 4
  br label %178

80:                                               ; preds = %73, %68
  %81 = load ptr, ptr %5, align 8, !tbaa !9
  %82 = call ptr @OSSL_PARAM_locate_const(ptr noundef %81, ptr noundef @.str.5)
  store ptr %82, ptr %7, align 8, !tbaa !9
  %83 = load ptr, ptr %7, align 8, !tbaa !9
  %84 = icmp ne ptr %83, null
  br i1 %84, label %85, label %101

85:                                               ; preds = %80
  %86 = load ptr, ptr %7, align 8, !tbaa !9
  %87 = getelementptr inbounds nuw %struct.ossl_param_st, ptr %86, i32 0, i32 1
  %88 = load i32, ptr %87, align 8, !tbaa !30
  %89 = icmp ne i32 %88, 5
  br i1 %89, label %100, label %90

90:                                               ; preds = %85
  %91 = load ptr, ptr %6, align 8, !tbaa !13
  %92 = load ptr, ptr %7, align 8, !tbaa !9
  %93 = getelementptr inbounds nuw %struct.ossl_param_st, ptr %92, i32 0, i32 2
  %94 = load ptr, ptr %93, align 8, !tbaa !32
  %95 = load ptr, ptr %7, align 8, !tbaa !9
  %96 = getelementptr inbounds nuw %struct.ossl_param_st, ptr %95, i32 0, i32 3
  %97 = load i64, ptr %96, align 8, !tbaa !33
  %98 = call i32 @dsa_set_gen_seed(ptr noundef %91, ptr noundef %94, i64 noundef %97)
  %99 = icmp ne i32 %98, 0
  br i1 %99, label %101, label %100

100:                                              ; preds = %90, %85
  store i32 0, ptr %3, align 4
  store i32 1, ptr %9, align 4
  br label %178

101:                                              ; preds = %90, %80
  %102 = load ptr, ptr %5, align 8, !tbaa !9
  %103 = call ptr @OSSL_PARAM_locate_const(ptr noundef %102, ptr noundef @.str.6)
  store ptr %103, ptr %7, align 8, !tbaa !9
  %104 = icmp ne ptr %103, null
  br i1 %104, label %105, label %112

105:                                              ; preds = %101
  %106 = load ptr, ptr %7, align 8, !tbaa !9
  %107 = load ptr, ptr %6, align 8, !tbaa !13
  %108 = getelementptr inbounds nuw %struct.dsa_gen_ctx, ptr %107, i32 0, i32 3
  %109 = call i32 @OSSL_PARAM_get_size_t(ptr noundef %106, ptr noundef %108)
  %110 = icmp ne i32 %109, 0
  br i1 %110, label %112, label %111

111:                                              ; preds = %105
  store i32 0, ptr %3, align 4
  store i32 1, ptr %9, align 4
  br label %178

112:                                              ; preds = %105, %101
  %113 = load ptr, ptr %5, align 8, !tbaa !9
  %114 = call ptr @OSSL_PARAM_locate_const(ptr noundef %113, ptr noundef @.str.7)
  store ptr %114, ptr %7, align 8, !tbaa !9
  %115 = icmp ne ptr %114, null
  br i1 %115, label %116, label %123

116:                                              ; preds = %112
  %117 = load ptr, ptr %7, align 8, !tbaa !9
  %118 = load ptr, ptr %6, align 8, !tbaa !13
  %119 = getelementptr inbounds nuw %struct.dsa_gen_ctx, ptr %118, i32 0, i32 4
  %120 = call i32 @OSSL_PARAM_get_size_t(ptr noundef %117, ptr noundef %119)
  %121 = icmp ne i32 %120, 0
  br i1 %121, label %123, label %122

122:                                              ; preds = %116
  store i32 0, ptr %3, align 4
  store i32 1, ptr %9, align 4
  br label %178

123:                                              ; preds = %116, %112
  %124 = load ptr, ptr %5, align 8, !tbaa !9
  %125 = call ptr @OSSL_PARAM_locate_const(ptr noundef %124, ptr noundef @.str.8)
  store ptr %125, ptr %7, align 8, !tbaa !9
  %126 = load ptr, ptr %7, align 8, !tbaa !9
  %127 = icmp ne ptr %126, null
  br i1 %127, label %128, label %150

128:                                              ; preds = %123
  %129 = load ptr, ptr %7, align 8, !tbaa !9
  %130 = getelementptr inbounds nuw %struct.ossl_param_st, ptr %129, i32 0, i32 1
  %131 = load i32, ptr %130, align 8, !tbaa !30
  %132 = icmp ne i32 %131, 4
  br i1 %132, label %133, label %134

133:                                              ; preds = %128
  store i32 0, ptr %3, align 4
  store i32 1, ptr %9, align 4
  br label %178

134:                                              ; preds = %128
  %135 = load ptr, ptr %6, align 8, !tbaa !13
  %136 = getelementptr inbounds nuw %struct.dsa_gen_ctx, ptr %135, i32 0, i32 11
  %137 = load ptr, ptr %136, align 8, !tbaa !34
  call void @CRYPTO_free(ptr noundef %137, ptr noundef @.str, i32 noundef 523)
  %138 = load ptr, ptr %7, align 8, !tbaa !9
  %139 = getelementptr inbounds nuw %struct.ossl_param_st, ptr %138, i32 0, i32 2
  %140 = load ptr, ptr %139, align 8, !tbaa !32
  %141 = call noalias ptr @CRYPTO_strdup(ptr noundef %140, ptr noundef @.str, i32 noundef 524)
  %142 = load ptr, ptr %6, align 8, !tbaa !13
  %143 = getelementptr inbounds nuw %struct.dsa_gen_ctx, ptr %142, i32 0, i32 11
  store ptr %141, ptr %143, align 8, !tbaa !34
  %144 = load ptr, ptr %6, align 8, !tbaa !13
  %145 = getelementptr inbounds nuw %struct.dsa_gen_ctx, ptr %144, i32 0, i32 11
  %146 = load ptr, ptr %145, align 8, !tbaa !34
  %147 = icmp eq ptr %146, null
  br i1 %147, label %148, label %149

148:                                              ; preds = %134
  store i32 0, ptr %3, align 4
  store i32 1, ptr %9, align 4
  br label %178

149:                                              ; preds = %134
  br label %150

150:                                              ; preds = %149, %123
  %151 = load ptr, ptr %5, align 8, !tbaa !9
  %152 = call ptr @OSSL_PARAM_locate_const(ptr noundef %151, ptr noundef @.str.9)
  store ptr %152, ptr %7, align 8, !tbaa !9
  %153 = load ptr, ptr %7, align 8, !tbaa !9
  %154 = icmp ne ptr %153, null
  br i1 %154, label %155, label %177

155:                                              ; preds = %150
  %156 = load ptr, ptr %7, align 8, !tbaa !9
  %157 = getelementptr inbounds nuw %struct.ossl_param_st, ptr %156, i32 0, i32 1
  %158 = load i32, ptr %157, align 8, !tbaa !30
  %159 = icmp ne i32 %158, 4
  br i1 %159, label %160, label %161

160:                                              ; preds = %155
  store i32 0, ptr %3, align 4
  store i32 1, ptr %9, align 4
  br label %178

161:                                              ; preds = %155
  %162 = load ptr, ptr %6, align 8, !tbaa !13
  %163 = getelementptr inbounds nuw %struct.dsa_gen_ctx, ptr %162, i32 0, i32 12
  %164 = load ptr, ptr %163, align 8, !tbaa !35
  call void @CRYPTO_free(ptr noundef %164, ptr noundef @.str, i32 noundef 532)
  %165 = load ptr, ptr %7, align 8, !tbaa !9
  %166 = getelementptr inbounds nuw %struct.ossl_param_st, ptr %165, i32 0, i32 2
  %167 = load ptr, ptr %166, align 8, !tbaa !32
  %168 = call noalias ptr @CRYPTO_strdup(ptr noundef %167, ptr noundef @.str, i32 noundef 533)
  %169 = load ptr, ptr %6, align 8, !tbaa !13
  %170 = getelementptr inbounds nuw %struct.dsa_gen_ctx, ptr %169, i32 0, i32 12
  store ptr %168, ptr %170, align 8, !tbaa !35
  %171 = load ptr, ptr %6, align 8, !tbaa !13
  %172 = getelementptr inbounds nuw %struct.dsa_gen_ctx, ptr %171, i32 0, i32 12
  %173 = load ptr, ptr %172, align 8, !tbaa !35
  %174 = icmp eq ptr %173, null
  br i1 %174, label %175, label %176

175:                                              ; preds = %161
  store i32 0, ptr %3, align 4
  store i32 1, ptr %9, align 4
  br label %178

176:                                              ; preds = %161
  br label %177

177:                                              ; preds = %176, %150
  store i32 1, ptr %3, align 4
  store i32 1, ptr %9, align 4
  br label %178

178:                                              ; preds = %177, %175, %160, %148, %133, %122, %111, %100, %79, %67, %55, %35, %18, %13
  call void @llvm.lifetime.end.p0(i64 4, ptr %8) #7
  call void @llvm.lifetime.end.p0(i64 8, ptr %7) #7
  call void @llvm.lifetime.end.p0(i64 8, ptr %6) #7
  %179 = load i32, ptr %3, align 4
  ret i32 %179
}