; Function Attrs: nounwind uwtable
define internal range(i32 0, 2) i32 @dsa_gen_set_params(ptr noundef %0, ptr noundef %1) #0 {
  %3 = icmp eq ptr %0, null
  br i1 %3, label %ossl_param_is_empty.exit.thread, label %4

4:                                                ; preds = %2
  %5 = icmp eq ptr %1, null
  br i1 %5, label %ossl_param_is_empty.exit.thread, label %ossl_param_is_empty.exit

ossl_param_is_empty.exit:                         ; preds = %4
  %6 = load ptr, ptr %1, align 8, !tbaa !25
  %.not = icmp eq ptr %6, null
  br i1 %.not, label %ossl_param_is_empty.exit.thread, label %7

7:                                                ; preds = %ossl_param_is_empty.exit
  %8 = tail call ptr @OSSL_PARAM_locate_const(ptr noundef nonnull %1, ptr noundef nonnull @.str.1) #7
  %.not59 = icmp eq ptr %8, null
  br i1 %.not59, label %27, label %9

9:                                                ; preds = %7
  %10 = getelementptr inbounds nuw i8, ptr %8, i64 8
  %11 = load i32, ptr %10, align 8, !tbaa !27
  %.not60 = icmp eq i32 %11, 4
  br i1 %.not60, label %12, label %dsa_gen_type_name2id.exit.thread

12:                                               ; preds = %9
  %13 = getelementptr inbounds nuw i8, ptr %8, i64 16
  %14 = load ptr, ptr %13, align 8, !tbaa !28
  br label %17

15:                                               ; preds = %17
  %16 = add nuw nsw i64 %.06.i, 1
  %exitcond.not.i = icmp eq i64 %16, 3
  br i1 %exitcond.not.i, label %dsa_gen_type_name2id.exit.thread, label %17, !llvm.loop !29

17:                                               ; preds = %15, %12
  %.06.i = phi i64 [ 0, %12 ], [ %16, %15 ]
  %18 = getelementptr inbounds nuw [3 x %struct.dh_name2id_st], ptr @dsatype2id, i64 0, i64 %.06.i
  %19 = load ptr, ptr %18, align 16, !tbaa !31
  %20 = tail call i32 @OPENSSL_strcasecmp(ptr noundef %19, ptr noundef %14) #7
  %21 = icmp eq i32 %20, 0
  br i1 %21, label %dsa_gen_type_name2id.exit, label %15

dsa_gen_type_name2id.exit:                        ; preds = %17
  %22 = getelementptr inbounds nuw i8, ptr %18, i64 8
  %23 = load i32, ptr %22, align 8, !tbaa !33
  %24 = icmp eq i32 %23, -1
  br i1 %24, label %dsa_gen_type_name2id.exit.thread, label %25

dsa_gen_type_name2id.exit.thread:                 ; preds = %15, %dsa_gen_type_name2id.exit, %9
  tail call void @ERR_new() #7
  tail call void @ERR_set_debug(ptr noundef nonnull @.str, i32 noundef 484, ptr noundef nonnull @__func__.dsa_gen_set_params) #7
  tail call void (i32, i32, ptr, ...) @ERR_set_error(i32 noundef 57, i32 noundef 524550, ptr noundef null) #7
  br label %ossl_param_is_empty.exit.thread

25:                                               ; preds = %dsa_gen_type_name2id.exit
  %26 = getelementptr inbounds nuw i8, ptr %0, i64 60
  store i32 %23, ptr %26, align 4, !tbaa !16
  br label %27

27:                                               ; preds = %25, %7
  %28 = tail call ptr @OSSL_PARAM_locate_const(ptr noundef nonnull %1, ptr noundef nonnull @.str.2) #7
  %.not61 = icmp eq ptr %28, null
  br i1 %.not61, label %32, label %29

29:                                               ; preds = %27
  %30 = getelementptr inbounds nuw i8, ptr %0, i64 56
  %31 = tail call i32 @OSSL_PARAM_get_int(ptr noundef nonnull %28, ptr noundef nonnull %30) #7
  %.not62 = icmp eq i32 %31, 0
  br i1 %.not62, label %ossl_param_is_empty.exit.thread, label %32

32:                                               ; preds = %29, %27
  %33 = tail call ptr @OSSL_PARAM_locate_const(ptr noundef nonnull %1, ptr noundef nonnull @.str.3) #7
  %.not63 = icmp eq ptr %33, null
  br i1 %.not63, label %37, label %34

34:                                               ; preds = %32
  %35 = getelementptr inbounds nuw i8, ptr %0, i64 64
  %36 = tail call i32 @OSSL_PARAM_get_int(ptr noundef nonnull %33, ptr noundef nonnull %35) #7
  %.not64 = icmp eq i32 %36, 0
  br i1 %.not64, label %ossl_param_is_empty.exit.thread, label %37

37:                                               ; preds = %34, %32
  %38 = tail call ptr @OSSL_PARAM_locate_const(ptr noundef nonnull %1, ptr noundef nonnull @.str.4) #7
  %.not65 = icmp eq ptr %38, null
  br i1 %.not65, label %42, label %39

39:                                               ; preds = %37
  %40 = getelementptr inbounds nuw i8, ptr %0, i64 68
  %41 = tail call i32 @OSSL_PARAM_get_int(ptr noundef nonnull %38, ptr noundef nonnull %40) #7
  %.not66 = icmp eq i32 %41, 0
  br i1 %.not66, label %ossl_param_is_empty.exit.thread, label %42

42:                                               ; preds = %39, %37
  %43 = tail call ptr @OSSL_PARAM_locate_const(ptr noundef nonnull %1, ptr noundef nonnull @.str.5) #7
  %.not67 = icmp eq ptr %43, null
  br i1 %.not67, label %53, label %44

44:                                               ; preds = %42
  %45 = getelementptr inbounds nuw i8, ptr %43, i64 8
  %46 = load i32, ptr %45, align 8, !tbaa !27
  %.not68 = icmp eq i32 %46, 5
  br i1 %.not68, label %47, label %ossl_param_is_empty.exit.thread

47:                                               ; preds = %44
  %48 = getelementptr inbounds nuw i8, ptr %43, i64 16
  %49 = load ptr, ptr %48, align 8, !tbaa !28
  %50 = getelementptr inbounds nuw i8, ptr %43, i64 24
  %51 = load i64, ptr %50, align 8, !tbaa !34
  %52 = tail call fastcc i32 @dsa_set_gen_seed(ptr noundef %0, ptr noundef %49, i64 noundef %51)
  %.not69 = icmp eq i32 %52, 0
  br i1 %.not69, label %ossl_param_is_empty.exit.thread, label %53

53:                                               ; preds = %47, %42
  %54 = tail call ptr @OSSL_PARAM_locate_const(ptr noundef nonnull %1, ptr noundef nonnull @.str.6) #7
  %.not70 = icmp eq ptr %54, null
  br i1 %.not70, label %58, label %55

55:                                               ; preds = %53
  %56 = getelementptr inbounds nuw i8, ptr %0, i64 24
  %57 = tail call i32 @OSSL_PARAM_get_size_t(ptr noundef nonnull %54, ptr noundef nonnull %56) #7
  %.not71 = icmp eq i32 %57, 0
  br i1 %.not71, label %ossl_param_is_empty.exit.thread, label %58

58:                                               ; preds = %55, %53
  %59 = tail call ptr @OSSL_PARAM_locate_const(ptr noundef nonnull %1, ptr noundef nonnull @.str.7) #7
  %.not72 = icmp eq ptr %59, null
  br i1 %.not72, label %63, label %60

60:                                               ; preds = %58
  %61 = getelementptr inbounds nuw i8, ptr %0, i64 32
  %62 = tail call i32 @OSSL_PARAM_get_size_t(ptr noundef nonnull %59, ptr noundef nonnull %61) #7
  %.not73 = icmp eq i32 %62, 0
  br i1 %.not73, label %ossl_param_is_empty.exit.thread, label %63

63:                                               ; preds = %60, %58
  %64 = tail call ptr @OSSL_PARAM_locate_const(ptr noundef nonnull %1, ptr noundef nonnull @.str.8) #7
  %.not74 = icmp eq ptr %64, null
  br i1 %.not74, label %75, label %65

65:                                               ; preds = %63
  %66 = getelementptr inbounds nuw i8, ptr %64, i64 8
  %67 = load i32, ptr %66, align 8, !tbaa !27
  %.not75 = icmp eq i32 %67, 4
  br i1 %.not75, label %68, label %ossl_param_is_empty.exit.thread

68:                                               ; preds = %65
  %69 = getelementptr inbounds nuw i8, ptr %0, i64 72
  %70 = load ptr, ptr %69, align 8, !tbaa !20
  tail call void @CRYPTO_free(ptr noundef %70, ptr noundef nonnull @.str, i32 noundef 523) #7
  %71 = getelementptr inbounds nuw i8, ptr %64, i64 16
  %72 = load ptr, ptr %71, align 8, !tbaa !28
  %73 = tail call noalias ptr @CRYPTO_strdup(ptr noundef %72, ptr noundef nonnull @.str, i32 noundef 524) #7
  store ptr %73, ptr %69, align 8, !tbaa !20
  %74 = icmp eq ptr %73, null
  br i1 %74, label %ossl_param_is_empty.exit.thread, label %75

75:                                               ; preds = %68, %63
  %76 = tail call ptr @OSSL_PARAM_locate_const(ptr noundef nonnull %1, ptr noundef nonnull @.str.9) #7
  %.not76 = icmp eq ptr %76, null
  br i1 %.not76, label %87, label %77

77:                                               ; preds = %75
  %78 = getelementptr inbounds nuw i8, ptr %76, i64 8
  %79 = load i32, ptr %78, align 8, !tbaa !27
  %.not77 = icmp eq i32 %79, 4
  br i1 %.not77, label %80, label %ossl_param_is_empty.exit.thread

80:                                               ; preds = %77
  %81 = getelementptr inbounds nuw i8, ptr %0, i64 80
  %82 = load ptr, ptr %81, align 8, !tbaa !21
  tail call void @CRYPTO_free(ptr noundef %82, ptr noundef nonnull @.str, i32 noundef 532) #7
  %83 = getelementptr inbounds nuw i8, ptr %76, i64 16
  %84 = load ptr, ptr %83, align 8, !tbaa !28
  %85 = tail call noalias ptr @CRYPTO_strdup(ptr noundef %84, ptr noundef nonnull @.str, i32 noundef 533) #7
  store ptr %85, ptr %81, align 8, !tbaa !21
  %86 = icmp eq ptr %85, null
  br i1 %86, label %ossl_param_is_empty.exit.thread, label %87

87:                                               ; preds = %80, %75
  br label %ossl_param_is_empty.exit.thread

ossl_param_is_empty.exit.thread:                  ; preds = %4, %80, %77, %68, %65, %60, %55, %44, %47, %39, %34, %29, %ossl_param_is_empty.exit, %2, %87, %dsa_gen_type_name2id.exit.thread
  %.0 = phi i32 [ 0, %dsa_gen_type_name2id.exit.thread ], [ 1, %87 ], [ 0, %2 ], [ 1, %ossl_param_is_empty.exit ], [ 0, %29 ], [ 0, %34 ], [ 0, %39 ], [ 0, %47 ], [ 0, %44 ], [ 0, %55 ], [ 0, %60 ], [ 0, %65 ], [ 0, %68 ], [ 0, %77 ], [ 0, %80 ], [ 1, %4 ]
  ret i32 %.0
}